; Function Attrs: nounwind uwtable
define hidden void @zim_SplDoublyLinkedList_shift(ptr noundef readonly captures(none) %0, ptr noundef captures(none) %1) #0 {
  %3 = getelementptr inbounds nuw i8, ptr %0, i64 44
  %4 = load i32, ptr %3, align 4, !tbaa !4
  %.not = icmp eq i32 %4, 0
  br i1 %.not, label %.critedge, label %5, !prof !59

5:                                                ; preds = %2
  tail call void @zend_wrong_parameters_none_error() #13
  br label %.sink.split

.critedge:                                        ; preds = %2
  %6 = getelementptr inbounds nuw i8, ptr %0, i64 32
  %7 = load ptr, ptr %6, align 8, !tbaa !4
  %8 = getelementptr inbounds i8, ptr %7, i64 -72
  %9 = load ptr, ptr %8, align 8, !tbaa !43
  %10 = load ptr, ptr %9, align 8, !tbaa !57
  %11 = icmp eq ptr %10, null
  br i1 %11, label %12, label %14

12:                                               ; preds = %.critedge
  %13 = getelementptr inbounds nuw i8, ptr %1, i64 8
  store i32 0, ptr %13, align 8, !tbaa !4
  br label %spl_ptr_llist_shift.exit

14:                                               ; preds = %.critedge
  %15 = getelementptr inbounds nuw i8, ptr %10, i64 8
  %16 = load ptr, ptr %15, align 8, !tbaa !55
  %.not.i = icmp eq ptr %16, null
  br i1 %.not.i, label %18, label %17

17:                                               ; preds = %14
  store ptr null, ptr %16, align 8, !tbaa !53
  br label %20

18:                                               ; preds = %14
  %19 = getelementptr inbounds nuw i8, ptr %9, i64 8
  store ptr null, ptr %19, align 8, !tbaa !51
  br label %20

20:                                               ; preds = %18, %17
  store ptr %16, ptr %9, align 8, !tbaa !57
  %21 = getelementptr inbounds nuw i8, ptr %9, i64 16
  %22 = load i32, ptr %21, align 8, !tbaa !58
  %23 = add nsw i32 %22, -1
  store i32 %23, ptr %21, align 8, !tbaa !58
  %24 = getelementptr inbounds nuw i8, ptr %10, i64 16
  %25 = load ptr, ptr %24, align 8, !tbaa !4
  %26 = getelementptr inbounds nuw i8, ptr %10, i64 24
  %27 = load i32, ptr %26, align 8, !tbaa !4
  store ptr %25, ptr %1, align 8, !tbaa !4
  %28 = getelementptr inbounds nuw i8, ptr %1, i64 8
  store i32 %27, ptr %28, align 8, !tbaa !4
  store i32 0, ptr %26, align 8, !tbaa !4
  store ptr null, ptr %15, align 8, !tbaa !55
  %29 = getelementptr inbounds nuw i8, ptr %10, i64 28
  %30 = load i32, ptr %29, align 4, !tbaa !4
  %31 = add i32 %30, -1
  store i32 %31, ptr %29, align 4, !tbaa !4
  %.not21.i = icmp eq i32 %31, 0
  br i1 %.not21.i, label %32, label %spl_ptr_llist_shift.exit

32:                                               ; preds = %20
  tail call void @_efree(ptr noundef nonnull %10) #13
  br label %spl_ptr_llist_shift.exit

spl_ptr_llist_shift.exit:                         ; preds = %12, %20, %32
  %33 = getelementptr inbounds nuw i8, ptr %1, i64 8
  %34 = load i8, ptr %33, align 8, !tbaa !4
  %35 = icmp eq i8 %34, 0
  br i1 %35, label %36, label %41

36:                                               ; preds = %spl_ptr_llist_shift.exit
  %37 = load ptr, ptr @spl_ce_RuntimeException, align 8, !tbaa !60
  %38 = tail call ptr @zend_throw_exception(ptr noundef %37, ptr noundef nonnull @.str.2, i64 noundef 0) #13
  br label %.sink.split

.sink.split:                                      ; preds = %5, %36
  %39 = load ptr, ptr getelementptr inbounds nuw (i8, ptr @executor_globals, i64 960), align 8, !tbaa !7
  %40 = icmp ne ptr %39, null
  tail call void @llvm.assume(i1 %40)
  br label %41

41:                                               ; preds = %.sink.split, %spl_ptr_llist_shift.exit
  ret void
}